target datalayout = "e-m:e-p270:32:32-p271:32:32-p272:64:64-i64:64-i128:128-f80:128-n8:16:32:64-S128"
target triple = "x86_64-pc-linux-gnu"

%"class.OpenColorIO_v2_5dev::OpCPU" = type { ptr }
%"class.OpenColorIO_v2_5dev::Renderer_LIN_TO_GAMMA_LOG" = type { %"class.OpenColorIO_v2_5dev::OpCPU", float, float, %"struct.OpenColorIO_v2_5dev::Renderer_LIN_TO_GAMMA_LOG::GammaSegment", %"struct.OpenColorIO_v2_5dev::Renderer_LIN_TO_GAMMA_LOG::LogSegment" }
%"struct.OpenColorIO_v2_5dev::Renderer_LIN_TO_GAMMA_LOG::GammaSegment" = type { float, float, float }
%"struct.OpenColorIO_v2_5dev::Renderer_LIN_TO_GAMMA_LOG::LogSegment" = type { float, float, float, float, float }

; Function Attrs: mustprogress nounwind uwtable
define linkonce_odr noundef float @_ZSt8copysignff(float noundef %0, float noundef %1) #4 comdat {
  %3 = alloca float, align 4
  %4 = alloca float, align 4
  store float %0, ptr %3, align 4, !tbaa !31
  store float %1, ptr %4, align 4, !tbaa !31
  %5 = load float, ptr %3, align 4, !tbaa !31
  %6 = load float, ptr %4, align 4, !tbaa !31
  %7 = call float @llvm.copysign.f32(float %5, float %6)
  ret float %7
}

; Function Attrs: inlinehint mustprogress nounwind uwtable
define linkonce_odr noundef float @_ZSt3logf(float noundef %0) #10 comdat {
  %2 = alloca float, align 4
  store float %0, ptr %2, align 4, !tbaa !31
  %3 = load float, ptr %2, align 4, !tbaa !31
  %4 = call float @logf(float noundef %3) #3, !tbaa !34
  ret float %4
}

; Function Attrs: inlinehint mustprogress nounwind uwtable
define linkonce_odr noundef float @_ZSt3powff(float noundef %0, float noundef %1) #10 comdat {
  %3 = alloca float, align 4
  %4 = alloca float, align 4
  store float %0, ptr %3, align 4, !tbaa !31
  store float %1, ptr %4, align 4, !tbaa !31
  %5 = load float, ptr %3, align 4, !tbaa !31
  %6 = load float, ptr %4, align 4, !tbaa !31
  %7 = call float @powf(float noundef %5, float noundef %6) #3, !tbaa !34
  ret float %7
}

; Function Attrs: inlinehint mustprogress nounwind uwtable
define linkonce_odr noundef float @_ZSt3absf(float noundef %0) #10 comdat {
  %2 = alloca float, align 4
  store float %0, ptr %2, align 4, !tbaa !31
  %3 = load float, ptr %2, align 4, !tbaa !31
  %4 = call float @llvm.fabs.f32(float %3)
  ret float %4
}

; Function Attrs: mustprogress uwtable
define hidden void @_ZNK19OpenColorIO_v2_5dev25Renderer_LIN_TO_GAMMA_LOG5applyEPKvPvl(ptr noundef nonnull align 8 dereferenceable(48) %0, ptr noundef %1, ptr noundef %2, i64 noundef %3) unnamed_addr #6 align 2 {
  %5 = alloca ptr, align 8
  %6 = alloca ptr, align 8
  %7 = alloca ptr, align 8
  %8 = alloca i64, align 8
  %9 = alloca ptr, align 8
  %10 = alloca ptr, align 8
  %11 = alloca i64, align 8
  %12 = alloca i32, align 4
  %13 = alloca i32, align 4
  %14 = alloca float, align 4
  %15 = alloca float, align 4
  %16 = alloca float, align 4
  %17 = alloca float, align 4
  store ptr %0, ptr %5, align 8, !tbaa !188
  store ptr %1, ptr %6, align 8, !tbaa !26
  store ptr %2, ptr %7, align 8, !tbaa !26
  store i64 %3, ptr %8, align 8, !tbaa !27
  %18 = load ptr, ptr %5, align 8
  call void @llvm.lifetime.start.p0(i64 8, ptr %9) #3
  %19 = load ptr, ptr %6, align 8, !tbaa !26
  store ptr %19, ptr %9, align 8, !tbaa !29
  call void @llvm.lifetime.start.p0(i64 8, ptr %10) #3
  %20 = load ptr, ptr %7, align 8, !tbaa !26
  store ptr %20, ptr %10, align 8, !tbaa !29
  call void @llvm.lifetime.start.p0(i64 8, ptr %11) #3
  store i64 0, ptr %11, align 8, !tbaa !27
  br label %21

21:                                               ; preds = %95, %4
  %22 = load i64, ptr %11, align 8, !tbaa !27
  %23 = load i64, ptr %8, align 8, !tbaa !27
  %24 = icmp slt i64 %22, %23
  br i1 %24, label %26, label %25

25:                                               ; preds = %21
  store i32 2, ptr %12, align 4
  call void @llvm.lifetime.end.p0(i64 8, ptr %11) #3
  br label %98

26:                                               ; preds = %21
  call void @llvm.lifetime.start.p0(i64 4, ptr %13) #3
  store i32 0, ptr %13, align 4, !tbaa !34
  br label %27

27:                                               ; preds = %86, %26
  %28 = load i32, ptr %13, align 4, !tbaa !34
  %29 = icmp slt i32 %28, 3
  br i1 %29, label %31, label %30

30:                                               ; preds = %27
  store i32 5, ptr %12, align 4
  call void @llvm.lifetime.end.p0(i64 4, ptr %13) #3
  br label %89

31:                                               ; preds = %27
  call void @llvm.lifetime.start.p0(i64 4, ptr %14) #3
  %32 = load ptr, ptr %9, align 8, !tbaa !29
  %33 = getelementptr inbounds nuw float, ptr %32, i32 1
  store ptr %33, ptr %9, align 8, !tbaa !29
  %34 = load float, ptr %32, align 4, !tbaa !31
  store float %34, ptr %14, align 4, !tbaa !31
  call void @llvm.lifetime.start.p0(i64 4, ptr %15) #3
  %35 = load float, ptr %14, align 4, !tbaa !31
  %36 = getelementptr inbounds nuw %"class.OpenColorIO_v2_5dev::Renderer_LIN_TO_GAMMA_LOG", ptr %18, i32 0, i32 1
  %37 = load float, ptr %36, align 8, !tbaa !190
  %38 = fsub float %35, %37
  store float %38, ptr %15, align 4, !tbaa !31
  call void @llvm.lifetime.start.p0(i64 4, ptr %16) #3
  %39 = load float, ptr %15, align 4, !tbaa !31
  %40 = call noundef float @_ZSt3absf(float noundef %39)
  %41 = getelementptr inbounds nuw %"class.OpenColorIO_v2_5dev::Renderer_LIN_TO_GAMMA_LOG", ptr %18, i32 0, i32 1
  %42 = load float, ptr %41, align 8, !tbaa !190
  %43 = fadd float %40, %42
  store float %43, ptr %16, align 4, !tbaa !31
  call void @llvm.lifetime.start.p0(i64 4, ptr %17) #3
  %44 = load float, ptr %16, align 4, !tbaa !31
  %45 = getelementptr inbounds nuw %"class.OpenColorIO_v2_5dev::Renderer_LIN_TO_GAMMA_LOG", ptr %18, i32 0, i32 2
  %46 = load float, ptr %45, align 4, !tbaa !194
  %47 = fcmp olt float %44, %46
  br i1 %47, label %48, label %62

48:                                               ; preds = %31
  %49 = getelementptr inbounds nuw %"class.OpenColorIO_v2_5dev::Renderer_LIN_TO_GAMMA_LOG", ptr %18, i32 0, i32 3
  %50 = getelementptr inbounds nuw %"struct.OpenColorIO_v2_5dev::Renderer_LIN_TO_GAMMA_LOG::GammaSegment", ptr %49, i32 0, i32 1
  %51 = load float, ptr %50, align 4, !tbaa !196
  %52 = load float, ptr %16, align 4, !tbaa !31
  %53 = getelementptr inbounds nuw %"class.OpenColorIO_v2_5dev::Renderer_LIN_TO_GAMMA_LOG", ptr %18, i32 0, i32 3
  %54 = getelementptr inbounds nuw %"struct.OpenColorIO_v2_5dev::Renderer_LIN_TO_GAMMA_LOG::GammaSegment", ptr %53, i32 0, i32 2
  %55 = load float, ptr %54, align 8, !tbaa !197
  %56 = fadd float %52, %55
  %57 = getelementptr inbounds nuw %"class.OpenColorIO_v2_5dev::Renderer_LIN_TO_GAMMA_LOG", ptr %18, i32 0, i32 3
  %58 = getelementptr inbounds nuw %"struct.OpenColorIO_v2_5dev::Renderer_LIN_TO_GAMMA_LOG::GammaSegment", ptr %57, i32 0, i32 0
  %59 = load float, ptr %58, align 8, !tbaa !195
  %60 = call noundef float @_ZSt3powff(float noundef %56, float noundef %59)
  %61 = fmul float %51, %60
  store float %61, ptr %17, align 4, !tbaa !31
  br label %79

62:                                               ; preds = %31
  %63 = getelementptr inbounds nuw %"class.OpenColorIO_v2_5dev::Renderer_LIN_TO_GAMMA_LOG", ptr %18, i32 0, i32 4
  %64 = getelementptr inbounds nuw %"struct.OpenColorIO_v2_5dev::Renderer_LIN_TO_GAMMA_LOG::LogSegment", ptr %63, i32 0, i32 1
  %65 = load float, ptr %64, align 4, !tbaa !199
  %66 = getelementptr inbounds nuw %"class.OpenColorIO_v2_5dev::Renderer_LIN_TO_GAMMA_LOG", ptr %18, i32 0, i32 4
  %67 = getelementptr inbounds nuw %"struct.OpenColorIO_v2_5dev::Renderer_LIN_TO_GAMMA_LOG::LogSegment", ptr %66, i32 0, i32 3
  %68 = load float, ptr %67, align 4, !tbaa !201
  %69 = load float, ptr %16, align 4, !tbaa !31
  %70 = getelementptr inbounds nuw %"class.OpenColorIO_v2_5dev::Renderer_LIN_TO_GAMMA_LOG", ptr %18, i32 0, i32 4
  %71 = getelementptr inbounds nuw %"struct.OpenColorIO_v2_5dev::Renderer_LIN_TO_GAMMA_LOG::LogSegment", ptr %70, i32 0, i32 4
  %72 = load float, ptr %71, align 4, !tbaa !202
  %73 = call float @llvm.fmuladd.f32(float %68, float %69, float %72)
  %74 = call noundef float @_ZSt3logf(float noundef %73)
  %75 = getelementptr inbounds nuw %"class.OpenColorIO_v2_5dev::Renderer_LIN_TO_GAMMA_LOG", ptr %18, i32 0, i32 4
  %76 = getelementptr inbounds nuw %"struct.OpenColorIO_v2_5dev::Renderer_LIN_TO_GAMMA_LOG::LogSegment", ptr %75, i32 0, i32 2
  %77 = load float, ptr %76, align 4, !tbaa !200
  %78 = call float @llvm.fmuladd.f32(float %65, float %74, float %77)
  store float %78, ptr %17, align 4, !tbaa !31
  br label %79

79:                                               ; preds = %62, %48
  %80 = load float, ptr %17, align 4, !tbaa !31
  %81 = load float, ptr %15, align 4, !tbaa !31
  %82 = call noundef float @_ZSt8copysignff(float noundef 1.000000e+00, float noundef %81)
  %83 = fmul float %80, %82
  %84 = load ptr, ptr %10, align 8, !tbaa !29
  %85 = getelementptr inbounds nuw float, ptr %84, i32 1
  store ptr %85, ptr %10, align 8, !tbaa !29
  store float %83, ptr %84, align 4, !tbaa !31
  call void @llvm.lifetime.end.p0(i64 4, ptr %17) #3
  call void @llvm.lifetime.end.p0(i64 4, ptr %16) #3
  call void @llvm.lifetime.end.p0(i64 4, ptr %15) #3
  call void @llvm.lifetime.end.p0(i64 4, ptr %14) #3
  br label %86

86:                                               ; preds = %79
  %87 = load i32, ptr %13, align 4, !tbaa !34
  %88 = add nsw i32 %87, 1
  store i32 %88, ptr %13, align 4, !tbaa !34
  br label %27, !llvm.loop !216

89:                                               ; preds = %30
  %90 = load ptr, ptr %9, align 8, !tbaa !29
  %91 = getelementptr inbounds nuw float, ptr %90, i32 1
  store ptr %91, ptr %9, align 8, !tbaa !29
  %92 = load float, ptr %90, align 4, !tbaa !31
  %93 = load ptr, ptr %10, align 8, !tbaa !29
  %94 = getelementptr inbounds nuw float, ptr %93, i32 1
  store ptr %94, ptr %10, align 8, !tbaa !29
  store float %92, ptr %93, align 4, !tbaa !31
  br label %95

95:                                               ; preds = %89
  %96 = load i64, ptr %11, align 8, !tbaa !27
  %97 = add nsw i64 %96, 1
  store i64 %97, ptr %11, align 8, !tbaa !27
  br label %21, !llvm.loop !217

98:                                               ; preds = %25
  call void @llvm.lifetime.end.p0(i64 8, ptr %10) #3
  call void @llvm.lifetime.end.p0(i64 8, ptr %9) #3
  ret void
}